{
   Intel oneTBB thread initialization leak
   Memcheck:Leak
   match-leak-kinds: possible
   fun:_ZN3tbb6detail2r13rml14private_worker14thread_routineEPv
   fun:start_thread
   fun:clone
}
{
   <insert_a_suppression_name_here>
   Memcheck:Leak
   match-leak-kinds: possible
   fun:memalign
   fun:_ZN3tbb6detail2r1L26std_cache_aligned_allocateEmm
   fun:_ZN3tbb6detail2r122cache_aligned_allocateEm
   fun:_ZN3tbb6detail2d123cache_aligned_allocatorINS0_2r13rml14private_serverEE8allocateEm
   fun:_ZN3tbb6detail2r13rml19make_private_serverERNS2_10tbb_clientE
   fun:_ZN3tbb6detail2r18governor17create_rml_serverERNS1_3rml10tbb_clientE
   fun:_ZN3tbb6detail2r117thread_dispatcherC1ERNS1_17threading_controlEjm
   fun:_ZN3tbb6detail2r125make_cache_aligned_uniqueINS1_17thread_dispatcherEJRNS1_17threading_controlERjRmEEESt10unique_ptrIT_NS1_21cache_aligned_deleterEEDpOT0_
   fun:_ZN3tbb6detail2r122threading_control_impl22make_thread_dispatcherERNS1_17threading_controlEjj
   fun:_ZN3tbb6detail2r122threading_control_implC1EPNS1_17threading_controlE
   fun:_ZN3tbb6detail2r125make_cache_aligned_uniqueINS1_22threading_control_implEJRPNS1_17threading_controlEEEESt10unique_ptrIT_NS1_21cache_aligned_deleterEEDpOT0_
   fun:_ZZN3tbb6detail2r117threading_control24create_threading_controlEvENKUlvE_clEv
}
{
   <insert_a_suppression_name_here>
   Memcheck:Leak
   match-leak-kinds: possible
   fun:malloc
   fun:_ZN3tbb6detail2r115allocate_memoryEm
   fun:_ZN3tbb6detail2d113tbb_allocatorIPNS0_2r19pm_clientEE8allocateEm
   fun:_ZNSt16allocator_traitsIN3tbb6detail2d113tbb_allocatorIPNS1_2r19pm_clientEEEE8allocateERS7_m
   fun:_ZNSt12_Vector_baseIPN3tbb6detail2r19pm_clientENS1_2d113tbb_allocatorIS4_EEE11_M_allocateEm
   fun:_ZNSt6vectorIPN3tbb6detail2r19pm_clientENS1_2d113tbb_allocatorIS4_EEE17_M_realloc_insertIJRKS4_EEEvN9__gnu_cxx17__normal_iteratorIPS4_S8_EEDpOT_
   fun:_ZNSt6vectorIPN3tbb6detail2r19pm_clientENS1_2d113tbb_allocatorIS4_EEE9push_backERKS4_
   fun:_ZN3tbb6detail2r16market15register_clientEPNS1_9pm_clientERNS0_2d111constraintsE
   fun:_ZN3tbb6detail2r122threading_control_impl14publish_clientENS1_24threading_control_clientERNS0_2d111constraintsE
   fun:_ZN3tbb6detail2r117threading_control14publish_clientENS1_24threading_control_clientERNS0_2d111constraintsE
   fun:_ZN3tbb6detail2r15arena6createEPNS1_17threading_controlEjjjNS0_2d111constraintsE
   fun:_ZN3tbb6detail2r18governor20init_external_threadEv
}
{
   <insert_a_suppression_name_here>
   Memcheck:Leak
   match-leak-kinds: possible
   fun:memalign
   fun:_ZN3tbb6detail2r1L26std_cache_aligned_allocateEmm
   fun:_ZN3tbb6detail2r122cache_aligned_allocateEm
   fun:_ZZN3tbb6detail2r117threading_control24create_threading_controlEvENKUlvE_clEv
   fun:_ZN3tbb6detail2d014try_call_proxyIZNS0_2r117threading_control24create_threading_controlEvEUlvE_E12on_exceptionIZNS4_24create_threading_controlEvEUlvE0_EEvT_
   fun:_ZN3tbb6detail2r117threading_control24create_threading_controlEv
   fun:_ZN3tbb6detail2r117threading_control25register_public_referenceEv
   fun:_ZN3tbb6detail2r18governor20init_external_threadEv
   fun:_ZN3tbb6detail2r18governor15get_thread_dataEv
   fun:_ZN3tbb6detail2r18allocateERPNS0_2d117small_object_poolEm
   fun:_ZN3tbb6detail2d122small_object_allocator10new_objectINS0_2r110stage_taskEJRNS4_8pipelineERS2_EEEPT_DpOT0_
   fun:_ZN3tbb6detail2r117parallel_pipelineERNS0_2d118task_group_contextEmRKNS2_11filter_nodeE
}
{
   <insert_a_suppression_name_here>
   Memcheck:Leak
   match-leak-kinds: possible
   fun:memalign
   fun:_ZN3tbb6detail2r1L26std_cache_aligned_allocateEmm
   fun:_ZN3tbb6detail2r122cache_aligned_allocateEm
   fun:_ZN3tbb6detail2r125make_cache_aligned_uniqueINS1_25cancellation_disseminatorEJEEESt10unique_ptrIT_NS1_21cache_aligned_deleterEEDpOT0_
   fun:_ZN3tbb6detail2r122threading_control_implC1EPNS1_17threading_controlE
   fun:_ZN3tbb6detail2r125make_cache_aligned_uniqueINS1_22threading_control_implEJRPNS1_17threading_controlEEEESt10unique_ptrIT_NS1_21cache_aligned_deleterEEDpOT0_
   fun:_ZZN3tbb6detail2r117threading_control24create_threading_controlEvENKUlvE_clEv
   fun:_ZN3tbb6detail2d014try_call_proxyIZNS0_2r117threading_control24create_threading_controlEvEUlvE_E12on_exceptionIZNS4_24create_threading_controlEvEUlvE0_EEvT_
   fun:_ZN3tbb6detail2r117threading_control24create_threading_controlEv
   fun:_ZN3tbb6detail2r117threading_control25register_public_referenceEv
   fun:_ZN3tbb6detail2r18governor20init_external_threadEv
   fun:_ZN3tbb6detail2r18governor15get_thread_dataEv
}
{
   <insert_a_suppression_name_here>
   Memcheck:Leak
   match-leak-kinds: possible
   fun:memalign
   fun:_ZN3tbb6detail2r1L26std_cache_aligned_allocateEmm
   fun:_ZN3tbb6detail2r122cache_aligned_allocateEm
   fun:_ZN3tbb6detail2r125make_cache_aligned_uniqueINS1_22threading_control_implEJRPNS1_17threading_controlEEEESt10unique_ptrIT_NS1_21cache_aligned_deleterEEDpOT0_
   fun:_ZZN3tbb6detail2r117threading_control24create_threading_controlEvENKUlvE_clEv
   fun:_ZN3tbb6detail2d014try_call_proxyIZNS0_2r117threading_control24create_threading_controlEvEUlvE_E12on_exceptionIZNS4_24create_threading_controlEvEUlvE0_EEvT_
   fun:_ZN3tbb6detail2r117threading_control24create_threading_controlEv
   fun:_ZN3tbb6detail2r117threading_control25register_public_referenceEv
   fun:_ZN3tbb6detail2r18governor20init_external_threadEv
   fun:_ZN3tbb6detail2r18governor15get_thread_dataEv
   fun:_ZN3tbb6detail2r18allocateERPNS0_2d117small_object_poolEm
   fun:_ZN3tbb6detail2d122small_object_allocator10new_objectINS0_2r110stage_taskEJRNS4_8pipelineERS2_EEEPT_DpOT0_
}
{
   <insert_a_suppression_name_here>
   Memcheck:Leak
   match-leak-kinds: possible
   fun:memalign
   fun:_ZN3tbb6detail2r1L26std_cache_aligned_allocateEmm
   fun:_ZN3tbb6detail2r122cache_aligned_allocateEm
   fun:_ZN3tbb6detail2r125make_cache_aligned_uniqueINS1_22thread_control_monitorEJEEESt10unique_ptrIT_NS1_21cache_aligned_deleterEEDpOT0_
   fun:_ZN3tbb6detail2r122threading_control_implC1EPNS1_17threading_controlE
   fun:_ZN3tbb6detail2r125make_cache_aligned_uniqueINS1_22threading_control_implEJRPNS1_17threading_controlEEEESt10unique_ptrIT_NS1_21cache_aligned_deleterEEDpOT0_
   fun:_ZZN3tbb6detail2r117threading_control24create_threading_controlEvENKUlvE_clEv
   fun:_ZN3tbb6detail2d014try_call_proxyIZNS0_2r117threading_control24create_threading_controlEvEUlvE_E12on_exceptionIZNS4_24create_threading_controlEvEUlvE0_EEvT_
   fun:_ZN3tbb6detail2r117threading_control24create_threading_controlEv
   fun:_ZN3tbb6detail2r117threading_control25register_public_referenceEv
   fun:_ZN3tbb6detail2r18governor20init_external_threadEv
   fun:_ZN3tbb6detail2r18governor15get_thread_dataEv
}
{
   <insert_a_suppression_name_here>
   Memcheck:Leak
   match-leak-kinds: possible
   fun:memalign
   fun:_ZN3tbb6detail2r1L26std_cache_aligned_allocateEmm
   fun:_ZN3tbb6detail2r122cache_aligned_allocateEm
   fun:_ZN3tbb6detail2d123cache_aligned_allocatorINS0_2r13rml14private_serverEE8allocateEm
   fun:_ZN3tbb6detail2r13rml19make_private_serverERNS2_10tbb_clientE
   fun:_ZN3tbb6detail2r18governor17create_rml_serverERNS1_3rml10tbb_clientE
   fun:_ZN3tbb6detail2r117thread_dispatcherC1ERNS1_17threading_controlEjm
   fun:_ZN3tbb6detail2r125make_cache_aligned_uniqueINS1_17thread_dispatcherEJRNS1_17threading_controlERjRmEEESt10unique_ptrIT_NS1_21cache_aligned_deleterEEDpOT0_
   fun:_ZN3tbb6detail2r122threading_control_impl22make_thread_dispatcherERNS1_17threading_controlEjj
   fun:_ZN3tbb6detail2r122threading_control_implC1EPNS1_17threading_controlE
   fun:_ZN3tbb6detail2r125make_cache_aligned_uniqueINS1_22threading_control_implEJRPNS1_17threading_controlEEEESt10unique_ptrIT_NS1_21cache_aligned_deleterEEDpOT0_
   fun:_ZZN3tbb6detail2r117threading_control24create_threading_controlEvENKUlvE_clEv
}
{
   <insert_a_suppression_name_here>
   Memcheck:Leak
   match-leak-kinds: possible
   fun:memalign
   fun:_ZN3tbb6detail2r1L26std_cache_aligned_allocateEmm
   fun:_ZN3tbb6detail2r122cache_aligned_allocateEm
   fun:_ZN3tbb6detail2r125make_cache_aligned_uniqueINS1_31thread_request_serializer_proxyEJRNS1_17thread_dispatcherERjEEESt10unique_ptrIT_NS1_21cache_aligned_deleterEEDpOT0_
   fun:_ZN3tbb6detail2r122threading_control_implC1EPNS1_17threading_controlE
   fun:_ZN3tbb6detail2r125make_cache_aligned_uniqueINS1_22threading_control_implEJRPNS1_17threading_controlEEEESt10unique_ptrIT_NS1_21cache_aligned_deleterEEDpOT0_
   fun:_ZZN3tbb6detail2r117threading_control24create_threading_controlEvENKUlvE_clEv
   fun:_ZN3tbb6detail2d014try_call_proxyIZNS0_2r117threading_control24create_threading_controlEvEUlvE_E12on_exceptionIZNS4_24create_threading_controlEvEUlvE0_EEvT_
   fun:_ZN3tbb6detail2r117threading_control24create_threading_controlEv
   fun:_ZN3tbb6detail2r117threading_control25register_public_referenceEv
   fun:_ZN3tbb6detail2r18governor20init_external_threadEv
   fun:_ZN3tbb6detail2r18governor15get_thread_dataEv
}
{
   <insert_a_suppression_name_here>
   Memcheck:Leak
   match-leak-kinds: possible
   fun:memalign
   fun:_ZN3tbb6detail2r1L26std_cache_aligned_allocateEmm
   fun:_ZN3tbb6detail2r122cache_aligned_allocateEm
   fun:_ZN3tbb6detail2r125make_cache_aligned_uniqueINS1_6marketEJRjEEESt10unique_ptrIT_NS1_21cache_aligned_deleterEEDpOT0_
   fun:_ZN3tbb6detail2r122threading_control_impl19make_permit_managerEj
   fun:_ZN3tbb6detail2r122threading_control_implC1EPNS1_17threading_controlE
   fun:_ZN3tbb6detail2r125make_cache_aligned_uniqueINS1_22threading_control_implEJRPNS1_17threading_controlEEEESt10unique_ptrIT_NS1_21cache_aligned_deleterEEDpOT0_
   fun:_ZZN3tbb6detail2r117threading_control24create_threading_controlEvENKUlvE_clEv
   fun:_ZN3tbb6detail2d014try_call_proxyIZNS0_2r117threading_control24create_threading_controlEvEUlvE_E12on_exceptionIZNS4_24create_threading_controlEvEUlvE0_EEvT_
   fun:_ZN3tbb6detail2r117threading_control24create_threading_controlEv
   fun:_ZN3tbb6detail2r117threading_control25register_public_referenceEv
   fun:_ZN3tbb6detail2r18governor20init_external_threadEv
}
{
   <insert_a_suppression_name_here>
   Memcheck:Leak
   match-leak-kinds: possible
   fun:memalign
   fun:_ZN3tbb6detail2r1L26std_cache_aligned_allocateEmm
   fun:_ZN3tbb6detail2r122cache_aligned_allocateEm
   fun:_ZN3tbb6detail2r125make_cache_aligned_uniqueINS1_17thread_dispatcherEJRNS1_17threading_controlERjRmEEESt10unique_ptrIT_NS1_21cache_aligned_deleterEEDpOT0_
   fun:_ZN3tbb6detail2r122threading_control_impl22make_thread_dispatcherERNS1_17threading_controlEjj
   fun:_ZN3tbb6detail2r122threading_control_implC1EPNS1_17threading_controlE
   fun:_ZN3tbb6detail2r125make_cache_aligned_uniqueINS1_22threading_control_implEJRPNS1_17threading_controlEEEESt10unique_ptrIT_NS1_21cache_aligned_deleterEEDpOT0_
   fun:_ZZN3tbb6detail2r117threading_control24create_threading_controlEvENKUlvE_clEv
   fun:_ZN3tbb6detail2d014try_call_proxyIZNS0_2r117threading_control24create_threading_controlEvEUlvE_E12on_exceptionIZNS4_24create_threading_controlEvEUlvE0_EEvT_
   fun:_ZN3tbb6detail2r117threading_control24create_threading_controlEv
   fun:_ZN3tbb6detail2r117threading_control25register_public_referenceEv
   fun:_ZN3tbb6detail2r18governor20init_external_threadEv
}
{
   <insert_a_suppression_name_here>
   Memcheck:Leak
   match-leak-kinds: possible
   fun:memalign
   fun:_ZN3tbb6detail2r1L26std_cache_aligned_allocateEmm
   fun:_ZN3tbb6detail2r122cache_aligned_allocateEm
   fun:_ZN3tbb6detail2d123cache_aligned_allocatorINS0_2r13rml21padded_private_workerEE8allocateEm
   fun:_ZN3tbb6detail2r13rml14private_serverC1ERNS2_10tbb_clientE
   fun:_ZN3tbb6detail2r13rml19make_private_serverERNS2_10tbb_clientE
   fun:_ZN3tbb6detail2r18governor17create_rml_serverERNS1_3rml10tbb_clientE
   fun:_ZN3tbb6detail2r117thread_dispatcherC1ERNS1_17threading_controlEjm
   fun:_ZN3tbb6detail2r125make_cache_aligned_uniqueINS1_17thread_dispatcherEJRNS1_17threading_controlERjRmEEESt10unique_ptrIT_NS1_21cache_aligned_deleterEEDpOT0_
   fun:_ZN3tbb6detail2r122threading_control_impl22make_thread_dispatcherERNS1_17threading_controlEjj
   fun:_ZN3tbb6detail2r122threading_control_implC1EPNS1_17threading_controlE
   fun:_ZN3tbb6detail2r125make_cache_aligned_uniqueINS1_22threading_control_implEJRPNS1_17threading_controlEEEESt10unique_ptrIT_NS1_21cache_aligned_deleterEEDpOT0_
}
